; ModuleID = 'bench/hdf5/original/mirror_server_stop.c.ll'
source_filename = "bench/hdf5/original/mirror_server_stop.c.ll"
target datalayout = "e-m:e-p270:32:32-p271:32:32-p272:64:64-i64:64-i128:128-f80:128-n8:16:32:64-S128"
target triple = "x86_64-pc-linux-gnu"

@str = private unnamed_addr constant [52 x i8] c"Mirror VFD not built -- unable to perform shutdown.\00", align 1

; Function Attrs: noreturn nounwind uwtable
define dso_local noundef i32 @main() local_unnamed_addr #0 {
  %puts = tail call i32 @puts(ptr nonnull dereferenceable(1) @str)
  tail call void @exit(i32 noundef 1) #3
  unreachable
}

; Function Attrs: noreturn nounwind
declare void @exit(i32 noundef) local_unnamed_addr #1

; Function Attrs: nofree nounwind
declare noundef i32 @puts(ptr nocapture noundef readonly) local_unnamed_addr #2


!llvm.module.flags = !{!0, !1, !2, !3, !4}

!0 = !{i32 1, !"wchar_size", i32 4}
!1 = !{i32 8, !"PIC Level", i32 2}
!2 = !{i32 7, !"PIE Level", i32 2}
!3 = !{i32 7, !"uwtable", i32 2}
!4 = !{i32 7, !"frame-pointer", i32 2}
